; Function Attrs: mustprogress nofree norecurse nosync nounwind willreturn memory(argmem: read) uwtable
define noundef zeroext i1 @_ZNK3gmx4Bias17isSampleCoordStepEl(ptr nocapture noundef nonnull readonly align 8 dereferenceable(556) %0, i64 noundef %1) local_unnamed_addr #13 align 2 {
  %3 = icmp sgt i64 %1, 0
  br i1 %3, label %4, label %_ZNK3gmx10BiasParams17isSampleCoordStepEl.exit

4:                                                ; preds = %2
  %5 = getelementptr inbounds i8, ptr %0, i64 80
  %6 = load i64, ptr %5, align 8
  %7 = srem i64 %1, %6
  %8 = icmp eq i64 %7, 0
  br label %_ZNK3gmx10BiasParams17isSampleCoordStepEl.exit

_ZNK3gmx10BiasParams17isSampleCoordStepEl.exit:   ; preds = %2, %4
  %9 = phi i1 [ false, %2 ], [ %8, %4 ]
  ret i1 %9
}